CCS PCM C Compiler, Version 5.015, 5967               10-Dec-23 23:33

               Filename:   E:\BAI TAP VXL\DETHI-GIAIDETHI\2015-2016\BT3#2_12-2015.lst

               ROM used:   171 words (2%)
                           Largest free fragment is 2048
               RAM used:   8 (2%) at main() level
                           10 (3%) worst case
               Stack used: 1 locations
               Stack size: 8

*
0000:  MOVLW  00
0001:  MOVWF  0A
0002:  GOTO   03D
0003:  NOP
.................... #INCLUDE<16F887.H> 
.................... //////////// Standard Header file for the PIC16F887 device //////////////// 
.................... /////////////////////////////////////////////////////////////////////////// 
.................... ////        (C) Copyright 1996, 2013 Custom Computer Services          //// 
.................... //// This source code may only be used by licensed users of the CCS C  //// 
.................... //// compiler.  This source code may only be distributed to other      //// 
.................... //// licensed users of the CCS C compiler.  No other use, reproduction //// 
.................... //// or distribution is permitted without written permission.          //// 
.................... //// Derivative programs created using this software in object code    //// 
.................... //// form are not restricted in any way.                               //// 
.................... /////////////////////////////////////////////////////////////////////////// 
.................... #device PIC16F887 
0004:  BCF    0A.0
0005:  BCF    0A.1
0006:  BCF    0A.2
0007:  ADDWF  02,F
0008:  RETLW  C0
0009:  RETLW  F9
000A:  RETLW  A4
000B:  RETLW  B0
000C:  RETLW  99
000D:  RETLW  92
000E:  RETLW  82
000F:  RETLW  F8
0010:  RETLW  80
0011:  RETLW  90
*
0028:  MOVF   23,W
0029:  CLRF   78
002A:  SUBWF  22,W
002B:  BTFSC  03.0
002C:  GOTO   030
002D:  MOVF   22,W
002E:  MOVWF  77
002F:  GOTO   03C
0030:  CLRF   77
0031:  MOVLW  08
0032:  MOVWF  24
0033:  RLF    22,F
0034:  RLF    77,F
0035:  MOVF   23,W
0036:  SUBWF  77,W
0037:  BTFSC  03.0
0038:  MOVWF  77
0039:  RLF    78,F
003A:  DECFSZ 24,F
003B:  GOTO   033
003C:  RETURN
....................  
.................... #list 
....................  
.................... #FUSES HS 
.................... #USE DELAY(CLOCK=20M) 
*
0012:  MOVLW  22
0013:  MOVWF  04
0014:  BCF    03.7
0015:  MOVF   00,W
0016:  BTFSC  03.2
0017:  GOTO   025
0018:  MOVLW  06
0019:  MOVWF  78
001A:  CLRF   77
001B:  DECFSZ 77,F
001C:  GOTO   01B
001D:  DECFSZ 78,F
001E:  GOTO   01A
001F:  MOVLW  7B
0020:  MOVWF  77
0021:  DECFSZ 77,F
0022:  GOTO   021
0023:  DECFSZ 00,F
0024:  GOTO   018
0025:  BCF    0A.3
0026:  BCF    0A.4
0027:  GOTO   072 (RETURN)
....................  
.................... #DEFINE RESET PIN_C3 
....................  
.................... #USE RS232 (BAUD=9600,XMIT=PIN_C6,RCV=PIN_C7) 
....................  
.................... CONST UNSIGNED INT8 MA7DOAN[10] = {0XC0, 0XF9, 0XA4, 0XB0, 0X99, 0X92, 0X82, 0XF8, 0X80, 0X90}; 
....................  
.................... UNSIGNED INT8 DEM2; 
....................  
.................... VOID MAIN() 
*
003D:  MOVF   03,W
003E:  ANDLW  1F
003F:  MOVWF  03
0040:  BSF    03.5
0041:  BSF    03.6
0042:  BSF    07.3
0043:  MOVLW  08
0044:  BCF    03.6
0045:  MOVWF  19
0046:  MOVLW  02
0047:  MOVWF  1A
0048:  MOVLW  A6
0049:  MOVWF  18
004A:  MOVLW  90
004B:  BCF    03.5
004C:  MOVWF  18
004D:  MOVLW  FF
004E:  MOVWF  21
004F:  BSF    03.5
0050:  BSF    03.6
0051:  MOVF   09,W
0052:  ANDLW  C0
0053:  MOVWF  09
0054:  BCF    03.6
0055:  BCF    1F.4
0056:  BCF    1F.5
0057:  MOVLW  00
0058:  BSF    03.6
0059:  MOVWF  08
005A:  BCF    03.5
005B:  CLRF   07
005C:  CLRF   08
005D:  CLRF   09
005E:  BCF    03.7
.................... { 
....................    SET_TRIS_D(0X00); 
005F:  MOVLW  00
0060:  BSF    03.5
0061:  BCF    03.6
0062:  MOVWF  08
....................    SET_TRIS_B(0X00); 
0063:  MOVWF  06
....................    SET_TRIS_C(0XFF); 
0064:  MOVLW  FF
0065:  MOVWF  07
0066:  BCF    03.5
0067:  MOVWF  21
....................     
....................    WHILE(TRUE) 
....................    { 
....................       //KIEM TRA NUT NHAN 
....................       IF(INPUT(RESET)==0) 
0068:  BSF    21.3
0069:  MOVF   21,W
006A:  BSF    03.5
006B:  MOVWF  07
006C:  BCF    03.5
006D:  BTFSC  07.3
006E:  GOTO   085
....................       { 
....................          DELAY_MS(10); 
006F:  MOVLW  0A
0070:  MOVWF  22
0071:  GOTO   012
....................          IF(INPUT(RESET)==0) 
0072:  BSF    21.3
0073:  MOVF   21,W
0074:  BSF    03.5
0075:  MOVWF  07
0076:  BCF    03.5
0077:  BTFSC  07.3
0078:  GOTO   085
....................          { 
....................             DEM2=0;            
0079:  CLRF   20
....................             //TRUYEN SO SAN PHAM 
....................             PUTC('0'); 
007A:  MOVLW  30
007B:  BTFSS  0C.4
007C:  GOTO   07B
007D:  MOVWF  19
....................             WHILE(INPUT(RESET)==0); 
007E:  BSF    21.3
007F:  MOVF   21,W
0080:  BSF    03.5
0081:  MOVWF  07
0082:  BCF    03.5
0083:  BTFSS  07.3
0084:  GOTO   07E
....................          } 
....................       } 
....................       //NHAN DU LIEU 
....................       IF(KBHIT()==1) 
0085:  MOVLW  00
0086:  BTFSC  0C.5
0087:  MOVLW  01
0088:  SUBLW  01
0089:  BTFSS  03.2
008A:  GOTO   08F
....................       { 
....................          DEM2=GETC();       
008B:  BTFSS  0C.5
008C:  GOTO   08B
008D:  MOVF   1A,W
008E:  MOVWF  20
....................       } 
....................       //HIEN THI LED 7 DOAN 
....................       OUTPUT_D(MA7DOAN[DEM2/10]); 
008F:  MOVF   20,W
0090:  MOVWF  22
0091:  MOVLW  0A
0092:  MOVWF  23
0093:  CALL   028
0094:  MOVF   78,W
0095:  CALL   004
0096:  MOVWF  22
0097:  BSF    03.5
0098:  CLRF   08
0099:  BCF    03.5
009A:  MOVF   22,W
009B:  MOVWF  08
....................       OUTPUT_B(MA7DOAN[DEM2%10]); 
009C:  MOVF   20,W
009D:  MOVWF  22
009E:  MOVLW  0A
009F:  MOVWF  23
00A0:  CALL   028
00A1:  MOVF   77,W
00A2:  CALL   004
00A3:  MOVWF  22
00A4:  BSF    03.5
00A5:  CLRF   06
00A6:  BCF    03.5
00A7:  MOVF   22,W
00A8:  MOVWF  06
00A9:  GOTO   068
....................    } 
.................... } 
00AA:  SLEEP

Configuration Fuses:
   Word  1: 2FE2   HS NOWDT PUT MCLR NOPROTECT NOCPD BROWNOUT IESO FCMEN NOLVP NODEBUG
   Word  2: 3FFF   BORV40 NOWRT
