CCS PCM C Compiler, Version 5.015, 5967               16-Dec-23 23:33

               Filename:   E:\BAI TAP VXL\DETHI-GIAIDETHI\2016-2017\BT1_2016-2017_HK1.lst

               ROM used:   181 words (2%)
                           Largest free fragment is 2048
               RAM used:   8 (2%) at main() level
                           8 (2%) worst case
               Stack used: 1 locations
               Stack size: 8

*
0000:  MOVLW  00
0001:  MOVWF  0A
0002:  GOTO   01A
0003:  NOP
.................... #INCLUDE<16F887.H> 
.................... //////////// Standard Header file for the PIC16F887 device //////////////// 
.................... /////////////////////////////////////////////////////////////////////////// 
.................... ////        (C) Copyright 1996, 2013 Custom Computer Services          //// 
.................... //// This source code may only be used by licensed users of the CCS C  //// 
.................... //// compiler.  This source code may only be distributed to other      //// 
.................... //// licensed users of the CCS C compiler.  No other use, reproduction //// 
.................... //// or distribution is permitted without written permission.          //// 
.................... //// Derivative programs created using this software in object code    //// 
.................... //// form are not restricted in any way.                               //// 
.................... /////////////////////////////////////////////////////////////////////////// 
.................... #device PIC16F887 
....................  
.................... #list 
....................  
.................... #FUSES INTRC 
.................... #USE DELAY(CLOCK=8M) 
0004:  MOVLW  22
0005:  MOVWF  04
0006:  BCF    03.7
0007:  MOVF   00,W
0008:  BTFSC  03.2
0009:  GOTO   017
000A:  MOVLW  02
000B:  MOVWF  78
000C:  CLRF   77
000D:  DECFSZ 77,F
000E:  GOTO   00D
000F:  DECFSZ 78,F
0010:  GOTO   00C
0011:  MOVLW  97
0012:  MOVWF  77
0013:  DECFSZ 77,F
0014:  GOTO   013
0015:  DECFSZ 00,F
0016:  GOTO   00A
0017:  BCF    0A.3
0018:  BCF    0A.4
0019:  GOTO   05C (RETURN)
....................  
.................... #DEFINE  CD_1   PIN_B0  //0%     PWM 
.................... #DEFINE  CD_2   PIN_B1  //50%    PWM 
.................... #DEFINE  CD_3   PIN_B2  //100%   PWM 
.................... #DEFINE  MODE   PIN_B3 
....................  
.................... INT1 STATUS=0; //0 QUAY THUAN 
....................                //1 QUAY NGHICH 
....................                
.................... VOID MAIN() 
001A:  MOVF   03,W
001B:  ANDLW  1F
001C:  MOVWF  03
001D:  MOVLW  71
001E:  BSF    03.5
001F:  MOVWF  0F
0020:  MOVF   0F,W
0021:  BCF    03.5
0022:  BCF    20.0
0023:  MOVLW  FF
0024:  MOVWF  21
0025:  BSF    03.5
0026:  BSF    03.6
0027:  MOVF   09,W
0028:  ANDLW  C0
0029:  MOVWF  09
002A:  BCF    03.6
002B:  BCF    1F.4
002C:  BCF    1F.5
002D:  MOVLW  00
002E:  BSF    03.6
002F:  MOVWF  08
0030:  BCF    03.5
0031:  CLRF   07
0032:  CLRF   08
0033:  CLRF   09
0034:  BCF    03.7
.................... { 
....................    SET_TRIS_B(0XFF); 
0035:  MOVLW  FF
0036:  BSF    03.5
0037:  BCF    03.6
0038:  MOVWF  06
....................    SET_TRIS_C(0X00); 
0039:  MOVLW  00
003A:  MOVWF  07
003B:  BCF    03.5
003C:  MOVWF  21
....................     
....................    //SETUP PWM DE QUAY THUAN VA NGHICH 
....................    SETUP_TIMER_2(T2_DIV_BY_16,124,1); //PR2=124 => MAXDUTY=(124+1)X4=500 
003D:  MOVWF  78
003E:  IORLW  06
003F:  MOVWF  12
0040:  MOVLW  7C
0041:  BSF    03.5
0042:  MOVWF  12
....................    SET_TIMER2(0); 
0043:  BCF    03.5
0044:  CLRF   11
....................    SETUP_CCP1(CCP_PWM); //RC2 
0045:  BCF    21.2
0046:  MOVF   21,W
0047:  BSF    03.5
0048:  MOVWF  07
0049:  BCF    03.5
004A:  BCF    07.2
004B:  MOVLW  0C
004C:  MOVWF  17
004D:  BSF    03.5
004E:  CLRF   1B
004F:  CLRF   1C
0050:  MOVLW  01
0051:  MOVWF  1D
....................    //SETUP_CCP2(CCP_PWM); //RC1 
....................    SET_PWM1_DUTY(0); //BAN DAU DUNG DONG CO 
0052:  BCF    03.5
0053:  CLRF   15
....................    //SET_PWM2_DUTY(0); //BAN DAU DUNG DONG CO 
....................     
....................    WHILE(TRUE) 
....................    { 
....................       //KIEM TRA NUT NHAN MODE 
....................       IF(INPUT(MODE)==0) 
0054:  BSF    03.5
0055:  BSF    06.3
0056:  BCF    03.5
0057:  BTFSC  06.3
0058:  GOTO   068
....................       { 
....................          DELAY_MS(10); 
0059:  MOVLW  0A
005A:  MOVWF  22
005B:  GOTO   004
....................          IF(INPUT(MODE)==0) 
005C:  BSF    03.5
005D:  BSF    06.3
005E:  BCF    03.5
005F:  BTFSC  06.3
0060:  GOTO   068
....................          { 
....................             STATUS=~STATUS; 
0061:  MOVLW  01
0062:  XORWF  20,F
....................             WHILE(INPUT(MODE)==0); 
0063:  BSF    03.5
0064:  BSF    06.3
0065:  BCF    03.5
0066:  BTFSS  06.3
0067:  GOTO   063
....................          } 
....................       } 
....................       /*//KIEM TRA QUAY THUAN VA QUAY NGHICH 
....................       IF(STATUS==0) 
....................       { 
....................          //QUAY THUAN 
....................          //XUAT XUNG RC1, LOW RC2         
....................          IF(INPUT(CD_1)==0)   SET_PWM2_DUTY((UNSIGNED INT16)0); 
....................          IF(INPUT(CD_2)==0)   SET_PWM2_DUTY((UNSIGNED INT16)250); 
....................          IF(INPUT(CD_3)==0)   SET_PWM2_DUTY((UNSIGNED INT16)500); 
....................          OUTPUT_LOW(PIN_C2); 
....................       } 
....................       ELSE  
....................       { 
....................          //QUAY NGHICH 
....................          //XUAT XUNG RC2, LOW RC1 
....................          IF(INPUT(CD_1)==0)   SET_PWM1_DUTY((UNSIGNED INT16)0); 
....................          IF(INPUT(CD_2)==0)   SET_PWM1_DUTY((UNSIGNED INT16)250); 
....................          IF(INPUT(CD_3)==0)   SET_PWM1_DUTY((UNSIGNED INT16)500); 
....................          OUTPUT_LOW(PIN_C1); 
....................       }*/ 
....................       IF(STATUS==0) 
0068:  BTFSC  20.0
0069:  GOTO   08F
....................       { 
....................          //QUAY THUAN 
....................          //XUAT XUNG RC1, LOW RC1  
....................          OUTPUT_LOW(PIN_C1); 
006A:  BCF    21.1
006B:  MOVF   21,W
006C:  BSF    03.5
006D:  MOVWF  07
006E:  BCF    03.5
006F:  BCF    07.1
....................          IF(INPUT(CD_1)==0)   SET_PWM1_DUTY((UNSIGNED INT16)0); 
0070:  BSF    03.5
0071:  BSF    06.0
0072:  BCF    03.5
0073:  BTFSC  06.0
0074:  GOTO   079
0075:  CLRF   15
0076:  MOVF   17,W
0077:  ANDLW  CF
0078:  MOVWF  17
....................          IF(INPUT(CD_2)==0)   SET_PWM1_DUTY((UNSIGNED INT16)250); 
0079:  BSF    03.5
007A:  BSF    06.1
007B:  BCF    03.5
007C:  BTFSC  06.1
007D:  GOTO   084
007E:  MOVLW  3E
007F:  MOVWF  15
0080:  MOVF   17,W
0081:  ANDLW  CF
0082:  IORLW  20
0083:  MOVWF  17
....................          IF(INPUT(CD_3)==0)   SET_PWM1_DUTY((UNSIGNED INT16)500);         
0084:  BSF    03.5
0085:  BSF    06.2
0086:  BCF    03.5
0087:  BTFSC  06.2
0088:  GOTO   08E
0089:  MOVLW  7D
008A:  MOVWF  15
008B:  MOVF   17,W
008C:  ANDLW  CF
008D:  MOVWF  17
....................       } 
008E:  GOTO   0B3
....................       ELSE  
....................       { 
....................          //QUAY NGHICH 
....................          //XUAT XUNG RC1, HIGH RC1 
....................          OUTPUT_HIGH(PIN_C1); 
008F:  BCF    21.1
0090:  MOVF   21,W
0091:  BSF    03.5
0092:  MOVWF  07
0093:  BCF    03.5
0094:  BSF    07.1
....................          IF(INPUT(CD_1)==0)   SET_PWM1_DUTY((UNSIGNED INT16)0); 
0095:  BSF    03.5
0096:  BSF    06.0
0097:  BCF    03.5
0098:  BTFSC  06.0
0099:  GOTO   09E
009A:  CLRF   15
009B:  MOVF   17,W
009C:  ANDLW  CF
009D:  MOVWF  17
....................          IF(INPUT(CD_2)==0)   SET_PWM1_DUTY((UNSIGNED INT16)250); 
009E:  BSF    03.5
009F:  BSF    06.1
00A0:  BCF    03.5
00A1:  BTFSC  06.1
00A2:  GOTO   0A9
00A3:  MOVLW  3E
00A4:  MOVWF  15
00A5:  MOVF   17,W
00A6:  ANDLW  CF
00A7:  IORLW  20
00A8:  MOVWF  17
....................          IF(INPUT(CD_3)==0)   SET_PWM1_DUTY((UNSIGNED INT16)500); 
00A9:  BSF    03.5
00AA:  BSF    06.2
00AB:  BCF    03.5
00AC:  BTFSC  06.2
00AD:  GOTO   0B3
00AE:  MOVLW  7D
00AF:  MOVWF  15
00B0:  MOVF   17,W
00B1:  ANDLW  CF
00B2:  MOVWF  17
....................       } 
00B3:  GOTO   054
....................    } 
.................... } 
....................  
00B4:  SLEEP

Configuration Fuses:
   Word  1: 2FE5   INTRC NOWDT PUT MCLR NOPROTECT NOCPD BROWNOUT IESO FCMEN NOLVP NODEBUG
   Word  2: 3FFF   BORV40 NOWRT
