CCS PCM C Compiler, Version 5.015, 5967               09-Dec-23 22:23

               Filename:   E:\BAI TAP VXL\DETHI-GIAIDETHI\2018-2019\BT1_2018-2019.lst

               ROM used:   262 words (3%)
                           Largest free fragment is 2048
               RAM used:   9 (2%) at main() level
                           10 (3%) worst case
               Stack used: 1 locations
               Stack size: 8

*
0000:  MOVLW  00
0001:  MOVWF  0A
0002:  GOTO   037
0003:  NOP
.................... #INCLUDE<16F887.H> 
.................... //////////// Standard Header file for the PIC16F887 device //////////////// 
.................... /////////////////////////////////////////////////////////////////////////// 
.................... ////        (C) Copyright 1996, 2013 Custom Computer Services          //// 
.................... //// This source code may only be used by licensed users of the CCS C  //// 
.................... //// compiler.  This source code may only be distributed to other      //// 
.................... //// licensed users of the CCS C compiler.  No other use, reproduction //// 
.................... //// or distribution is permitted without written permission.          //// 
.................... //// Derivative programs created using this software in object code    //// 
.................... //// form are not restricted in any way.                               //// 
.................... /////////////////////////////////////////////////////////////////////////// 
.................... #device PIC16F887 
0004:  BCF    0A.0
0005:  BCF    0A.1
0006:  BCF    0A.2
0007:  ADDWF  02,F
0008:  RETLW  C0
0009:  RETLW  F9
000A:  RETLW  A4
000B:  RETLW  B0
000C:  RETLW  99
000D:  RETLW  92
000E:  RETLW  82
000F:  RETLW  F8
0010:  RETLW  80
0011:  RETLW  90
....................  
.................... #list 
....................  
.................... #FUSES INTRC 
.................... #USE DELAY(CLOCK=8M) 
0012:  MOVLW  23
0013:  MOVWF  04
0014:  BCF    03.7
0015:  MOVF   00,W
0016:  BTFSC  03.2
0017:  GOTO   025
0018:  MOVLW  02
0019:  MOVWF  78
001A:  CLRF   77
001B:  DECFSZ 77,F
001C:  GOTO   01B
001D:  DECFSZ 78,F
001E:  GOTO   01A
001F:  MOVLW  97
0020:  MOVWF  77
0021:  DECFSZ 77,F
0022:  GOTO   021
0023:  DECFSZ 00,F
0024:  GOTO   018
0025:  RETURN
0026:  MOVLW  08
0027:  SUBWF  24,F
0028:  BTFSS  03.0
0029:  GOTO   036
002A:  MOVLW  24
002B:  MOVWF  04
002C:  BCF    03.7
002D:  BCF    03.0
002E:  RRF    00,F
002F:  MOVF   00,W
0030:  BTFSC  03.2
0031:  GOTO   036
0032:  GOTO   034
0033:  NOP
0034:  DECFSZ 00,F
0035:  GOTO   033
0036:  RETURN
....................  
.................... #BIT TMR1IF = 0X0C.0 
.................... #DEFINE P1 PIN_B1 
.................... #DEFINE P2 PIN_B2 
.................... #DEFINE P3 PIN_B3 
.................... #DEFINE PULSE1 PIN_C0 
.................... #DEFINE PULSE2 PIN_C1 
....................  
.................... CONST UNSIGNED INT8 MA7DOAN[10] = {0XC0, 0XF9, 0XA4, 0XB0, 0X99, 0X92, 0X82, 0XF8, 0X80, 0X90}; 
.................... UNSIGNED INT8 MODE=0; 
.................... INT1 STATUS=0; //0-H 1-L 
.................... //DINH THOI 2MS TIMER 1 DUTY=75% 
.................... /*75%    SET TIMER   65161 
....................          BO CHIA     8*/ 
.................... /*25%    SET TIMER   65411 
....................          BO CHIA     8*/ 
.................... //TAN SO             8MHZ 
.................... //SO LAN TRAN        1 
....................  
.................... VOID MAIN() 
0037:  MOVF   03,W
0038:  ANDLW  1F
0039:  MOVWF  03
003A:  MOVLW  71
003B:  BSF    03.5
003C:  MOVWF  0F
003D:  MOVF   0F,W
003E:  BCF    03.5
003F:  CLRF   20
0040:  BCF    21.0
0041:  MOVLW  FF
0042:  MOVWF  22
0043:  BSF    03.5
0044:  BSF    03.6
0045:  MOVF   09,W
0046:  ANDLW  C0
0047:  MOVWF  09
0048:  BCF    03.6
0049:  BCF    1F.4
004A:  BCF    1F.5
004B:  MOVLW  00
004C:  BSF    03.6
004D:  MOVWF  08
004E:  BCF    03.5
004F:  CLRF   07
0050:  CLRF   08
0051:  CLRF   09
0052:  BCF    03.7
.................... { 
....................    SET_TRIS_B(0XFF); 
0053:  MOVLW  FF
0054:  BSF    03.5
0055:  BCF    03.6
0056:  MOVWF  06
....................    SET_TRIS_C(0X00); 
0057:  MOVLW  00
0058:  MOVWF  07
0059:  BCF    03.5
005A:  MOVWF  22
....................    SET_TRIS_C(0X00); 
005B:  BSF    03.5
005C:  MOVWF  07
005D:  BCF    03.5
005E:  MOVWF  22
....................     
....................    //SETUP_PWM 
....................    //PR2=[T(s).f]/4.CT - 1 = 249 
....................    SETUP_TIMER_2(T2_DIV_BY_16,249,1);      
005F:  MOVWF  78
0060:  IORLW  06
0061:  MOVWF  12
0062:  MOVLW  F9
0063:  BSF    03.5
0064:  MOVWF  12
....................    //=> MaxDuty=1000 =>75% = 750 
....................    SETUP_CCP1(CCP_PWM); //RC2 
0065:  BCF    03.5
0066:  BCF    22.2
0067:  MOVF   22,W
0068:  BSF    03.5
0069:  MOVWF  07
006A:  BCF    03.5
006B:  BCF    07.2
006C:  MOVLW  0C
006D:  MOVWF  17
006E:  BSF    03.5
006F:  CLRF   1B
0070:  CLRF   1C
0071:  MOVLW  01
0072:  MOVWF  1D
....................    SET_TIMER2(0); 
0073:  BCF    03.5
0074:  CLRF   11
....................    SETUP_CCP1(CCP_OFF); 
0075:  MOVLW  F0
0076:  ANDWF  17,F
....................    //SETUP TIMER1 
....................    SETUP_TIMER_1(T1_INTERNAL|T1_DIV_BY_8); 
0077:  MOVLW  35
0078:  MOVWF  10
....................     
....................    WHILE(TRUE) 
....................    { 
....................       IF(INPUT(P1)==0) 
0079:  BSF    03.5
007A:  BSF    06.1
007B:  BCF    03.5
007C:  BTFSC  06.1
007D:  GOTO   08D
....................       { 
....................          DELAY_MS(10); 
007E:  MOVLW  0A
007F:  MOVWF  23
0080:  CALL   012
....................          IF(INPUT(P1)==0) 
0081:  BSF    03.5
0082:  BSF    06.1
0083:  BCF    03.5
0084:  BTFSC  06.1
0085:  GOTO   08D
....................          {  
....................             MODE=1; 
0086:  MOVLW  01
0087:  MOVWF  20
....................             WHILE(INPUT(P1)==0); 
0088:  BSF    03.5
0089:  BSF    06.1
008A:  BCF    03.5
008B:  BTFSS  06.1
008C:  GOTO   088
....................          } 
....................       } 
....................       IF(INPUT(P2)==0) 
008D:  BSF    03.5
008E:  BSF    06.2
008F:  BCF    03.5
0090:  BTFSC  06.2
0091:  GOTO   0A1
....................       { 
....................          DELAY_MS(10); 
0092:  MOVLW  0A
0093:  MOVWF  23
0094:  CALL   012
....................          IF(INPUT(P2)==0) 
0095:  BSF    03.5
0096:  BSF    06.2
0097:  BCF    03.5
0098:  BTFSC  06.2
0099:  GOTO   0A1
....................          {  
....................             MODE=2; 
009A:  MOVLW  02
009B:  MOVWF  20
....................             WHILE(INPUT(P2)==0); 
009C:  BSF    03.5
009D:  BSF    06.2
009E:  BCF    03.5
009F:  BTFSS  06.2
00A0:  GOTO   09C
....................          } 
....................       } 
....................       IF(INPUT(P3)==0) 
00A1:  BSF    03.5
00A2:  BSF    06.3
00A3:  BCF    03.5
00A4:  BTFSC  06.3
00A5:  GOTO   0B5
....................       { 
....................          DELAY_MS(10); 
00A6:  MOVLW  0A
00A7:  MOVWF  23
00A8:  CALL   012
....................          IF(INPUT(P3)==0) 
00A9:  BSF    03.5
00AA:  BSF    06.3
00AB:  BCF    03.5
00AC:  BTFSC  06.3
00AD:  GOTO   0B5
....................          {  
....................             MODE=3; 
00AE:  MOVLW  03
00AF:  MOVWF  20
....................             WHILE(INPUT(P3)==0); 
00B0:  BSF    03.5
00B1:  BSF    06.3
00B2:  BCF    03.5
00B3:  BTFSS  06.3
00B4:  GOTO   0B0
....................          } 
....................       } 
....................       /*IF(INPUT(P1)==0)  MODE=1; 
....................       IF(INPUT(P2)==0)  MODE=2; 
....................       IF(INPUT(P3)==0)  MODE=3; 
....................       */ 
....................       OUTPUT_D(MA7DOAN[MODE]); 
00B5:  MOVF   20,W
00B6:  CALL   004
00B7:  MOVWF  23
00B8:  BSF    03.5
00B9:  CLRF   08
00BA:  BCF    03.5
00BB:  MOVF   23,W
00BC:  MOVWF  08
....................        
....................        
....................       IF(MODE==1) 
00BD:  DECFSZ 20,W
00BE:  GOTO   0DF
....................       { 
....................          SETUP_CCP1(CCP_OFF); 
00BF:  MOVLW  F0
00C0:  ANDWF  17,F
....................          OUTPUT_HIGH(PULSE1); 
00C1:  BCF    22.0
00C2:  MOVF   22,W
00C3:  BSF    03.5
00C4:  MOVWF  07
00C5:  BCF    03.5
00C6:  BSF    07.0
....................          DELAY_US(1500); 
00C7:  MOVLW  01
00C8:  MOVWF  23
00C9:  CALL   012
00CA:  MOVLW  02
00CB:  MOVWF  23
00CC:  MOVLW  F8
00CD:  MOVWF  24
00CE:  CALL   026
00CF:  DECFSZ 23,F
00D0:  GOTO   0CC
....................          OUTPUT_LOW(PULSE1); 
00D1:  BCF    22.0
00D2:  MOVF   22,W
00D3:  BSF    03.5
00D4:  MOVWF  07
00D5:  BCF    03.5
00D6:  BCF    07.0
....................          DELAY_US(500); 
00D7:  MOVLW  02
00D8:  MOVWF  23
00D9:  MOVLW  F8
00DA:  MOVWF  24
00DB:  CALL   026
00DC:  DECFSZ 23,F
00DD:  GOTO   0D9
....................       } 
00DE:  GOTO   104
....................       /*ELSE IF(MODE==2) 
....................       { 
....................          SETUP_CCP1(CCP_OFF); 
....................          //SETUP TIMER1 CHE DO DINH THOI 
....................          SETUP_TIMER_1(T1_INTERNAL|T1_DIV_BY_8); 
....................          SET_TIMER1(65161); //DINHTHOI1.5MS 
....................          OUTPUT_HIGH(PULSE2); 
....................          WHILE(TRUE) 
....................          { 
....................             IF(TMR1IF==1) //TIMER1 DA TRAN 
....................             { 
....................                //DU 30MS TRONG TH SET_TIMER1(46786); 
....................                TMR1IF=0; 
....................                IF(STATUS==0) 
....................                { 
....................                   //DU 75% 
....................                   //CHUYEN SANG DINH THOI 25% 
....................                   SET_TIMER1(65411); //DINHTHOI70MS 
....................                   OUTPUT_LOW(PULSE2); 
....................                } 
....................                ELSE 
....................                { 
....................                   //DU 25% 
....................                   //CHUYEN SANG DINH THOI 75% 
....................                   SET_TIMER1(65161); 
....................                   OUTPUT_HIGH(PULSE2); 
....................                } 
....................                STATUS = ~STATUS;  
....................             } 
....................          } 
....................       }*/ 
....................       ELSE IF(MODE==3) 
00DF:  MOVF   20,W
00E0:  SUBLW  03
00E1:  BTFSS  03.2
00E2:  GOTO   0F8
....................       { 
....................          SETUP_CCP1(CCP_PWM); //SETUP LAI 
00E3:  BCF    22.2
00E4:  MOVF   22,W
00E5:  BSF    03.5
00E6:  MOVWF  07
00E7:  BCF    03.5
00E8:  BCF    07.2
00E9:  MOVLW  0C
00EA:  MOVWF  17
00EB:  BSF    03.5
00EC:  CLRF   1B
00ED:  CLRF   1C
00EE:  MOVLW  01
00EF:  MOVWF  1D
....................          SET_PWM1_DUTY((UNSIGNED INT16)750); 
00F0:  MOVLW  BB
00F1:  BCF    03.5
00F2:  MOVWF  15
00F3:  MOVF   17,W
00F4:  ANDLW  CF
00F5:  IORLW  20
00F6:  MOVWF  17
....................       } 
00F7:  GOTO   104
....................       ELSE 
....................       { 
....................          OUTPUT_LOW(PULSE1); 
00F8:  BCF    22.0
00F9:  MOVF   22,W
00FA:  BSF    03.5
00FB:  MOVWF  07
00FC:  BCF    03.5
00FD:  BCF    07.0
....................          OUTPUT_LOW(PULSE2); 
00FE:  BCF    22.1
00FF:  MOVF   22,W
0100:  BSF    03.5
0101:  MOVWF  07
0102:  BCF    03.5
0103:  BCF    07.1
....................       } 
0104:  GOTO   079
....................    } 
.................... } 
0105:  SLEEP

Configuration Fuses:
   Word  1: 2FE5   INTRC NOWDT PUT MCLR NOPROTECT NOCPD BROWNOUT IESO FCMEN NOLVP NODEBUG
   Word  2: 3FFF   BORV40 NOWRT
