CCS PCM C Compiler, Version 5.015, 5967               20-Dec-23 01:37

               Filename:   E:\BAI TAP VXL\DETHI-GIAIDETHI\2020-2021\BT1_2020-2021_HK1.lst

               ROM used:   193 words (2%)
                           Largest free fragment is 2048
               RAM used:   10 (3%) at main() level
                           15 (4%) worst case
               Stack used: 1 locations
               Stack size: 8

*
0000:  MOVLW  00
0001:  MOVWF  0A
0002:  GOTO   03F
0003:  NOP
.................... #INCLUDE<16F887.H> 
.................... //////////// Standard Header file for the PIC16F887 device //////////////// 
.................... /////////////////////////////////////////////////////////////////////////// 
.................... ////        (C) Copyright 1996, 2013 Custom Computer Services          //// 
.................... //// This source code may only be used by licensed users of the CCS C  //// 
.................... //// compiler.  This source code may only be distributed to other      //// 
.................... //// licensed users of the CCS C compiler.  No other use, reproduction //// 
.................... //// or distribution is permitted without written permission.          //// 
.................... //// Derivative programs created using this software in object code    //// 
.................... //// form are not restricted in any way.                               //// 
.................... /////////////////////////////////////////////////////////////////////////// 
.................... #device PIC16F887 
0004:  BCF    0A.0
0005:  BCF    0A.1
0006:  BCF    0A.2
0007:  ADDWF  02,F
0008:  RETLW  C0
0009:  RETLW  F9
000A:  RETLW  A4
000B:  RETLW  B0
000C:  RETLW  99
000D:  RETLW  92
000E:  RETLW  82
000F:  RETLW  F8
0010:  RETLW  80
0011:  RETLW  90
*
0028:  MOVLW  10
0029:  MOVWF  29
002A:  CLRF   77
002B:  CLRF   7A
002C:  RRF    26,F
002D:  RRF    25,F
002E:  BTFSS  03.0
002F:  GOTO   036
0030:  MOVF   27,W
0031:  ADDWF  77,F
0032:  BTFSC  03.0
0033:  INCF   7A,F
0034:  MOVF   28,W
0035:  ADDWF  7A,F
0036:  RRF    7A,F
0037:  RRF    77,F
0038:  RRF    79,F
0039:  RRF    78,F
003A:  DECFSZ 29,F
003B:  GOTO   02C
003C:  BCF    0A.3
003D:  BCF    0A.4
003E:  GOTO   0AC (RETURN)
....................  
.................... #list 
....................  
.................... #FUSES INTRC 
.................... #USE DELAY(CLOCK=8M) 
*
0012:  MOVLW  23
0013:  MOVWF  04
0014:  BCF    03.7
0015:  MOVF   00,W
0016:  BTFSC  03.2
0017:  GOTO   025
0018:  MOVLW  02
0019:  MOVWF  78
001A:  CLRF   77
001B:  DECFSZ 77,F
001C:  GOTO   01B
001D:  DECFSZ 78,F
001E:  GOTO   01A
001F:  MOVLW  97
0020:  MOVWF  77
0021:  DECFSZ 77,F
0022:  GOTO   021
0023:  DECFSZ 00,F
0024:  GOTO   018
0025:  BCF    0A.3
0026:  BCF    0A.4
0027:  GOTO   08B (RETURN)
....................  
.................... #DEFINE RAND PIN_B0 
....................  
.................... CONST UNSIGNED INT8 MA7DOAN[10] = {0XC0, 0XF9, 0XA4, 0XB0, 0X99, 0X92, 0X82, 0XF8, 0X80, 0X90}; 
....................  
.................... UNSIGNED INT8 I,LEVEL=0; 
....................  
.................... VOID MAIN() 
*
003F:  MOVF   03,W
0040:  ANDLW  1F
0041:  MOVWF  03
0042:  MOVLW  71
0043:  BSF    03.5
0044:  MOVWF  0F
0045:  MOVF   0F,W
0046:  BCF    03.5
0047:  CLRF   21
0048:  MOVLW  FF
0049:  MOVWF  22
004A:  BSF    03.5
004B:  BSF    03.6
004C:  MOVF   09,W
004D:  ANDLW  C0
004E:  MOVWF  09
004F:  BCF    03.6
0050:  BCF    1F.4
0051:  BCF    1F.5
0052:  MOVLW  00
0053:  BSF    03.6
0054:  MOVWF  08
0055:  BCF    03.5
0056:  CLRF   07
0057:  CLRF   08
0058:  CLRF   09
0059:  BCF    03.7
.................... { 
....................    SET_TRIS_D(0X00); 
005A:  MOVLW  00
005B:  BSF    03.5
005C:  BCF    03.6
005D:  MOVWF  08
....................    SET_TRIS_B(0X01); 
005E:  MOVLW  01
005F:  MOVWF  06
....................    //SETUP PWM 
....................    SETUP_TIMER_2(T2_DIV_BY_16,124,1); //PR2=124 => MAXDUTY=(124+1)X4=500 
0060:  MOVLW  00
0061:  MOVWF  78
0062:  IORLW  06
0063:  BCF    03.5
0064:  MOVWF  12
0065:  MOVLW  7C
0066:  BSF    03.5
0067:  MOVWF  12
....................                                       //10 CAP DO 0-1-2-3-4-5-6-7-8-9  
....................                                       //MOI CAP TUONG UNG VOI DUTY=50 
....................    SET_TIMER2(0); 
0068:  BCF    03.5
0069:  CLRF   11
....................    SETUP_CCP1(CCP_PWM); //RC2 
006A:  BCF    22.2
006B:  MOVF   22,W
006C:  BSF    03.5
006D:  MOVWF  07
006E:  BCF    03.5
006F:  BCF    07.2
0070:  MOVLW  0C
0071:  MOVWF  17
0072:  BSF    03.5
0073:  CLRF   1B
0074:  CLRF   1C
0075:  MOVLW  01
0076:  MOVWF  1D
....................    SET_PWM1_DUTY(0); //BAN DAU DUNG DONG CO 
0077:  BCF    03.5
0078:  CLRF   15
....................    OUTPUT_D(MA7DOAN[0]); 
0079:  BSF    03.5
007A:  CLRF   08
007B:  MOVLW  C0
007C:  BCF    03.5
007D:  MOVWF  08
....................    WHILE(TRUE) 
....................    { 
....................       //KIEM TRA NUT NHAN RAND 
....................       FOR(I=0;I<10;I++) 
007E:  CLRF   20
007F:  MOVF   20,W
0080:  SUBLW  09
0081:  BTFSS  03.0
0082:  GOTO   0A1
....................       { 
....................          IF(INPUT(RAND)==0) 
0083:  BSF    03.5
0084:  BSF    06.0
0085:  BCF    03.5
0086:  BTFSC  06.0
0087:  GOTO   09F
....................          { 
....................             DELAY_MS(20); 
0088:  MOVLW  14
0089:  MOVWF  23
008A:  GOTO   012
....................             IF(INPUT(RAND)==0) 
008B:  BSF    03.5
008C:  BSF    06.0
008D:  BCF    03.5
008E:  BTFSC  06.0
008F:  GOTO   09F
....................             { 
....................                OUTPUT_D(MA7DOAN[I]); 
0090:  MOVF   20,W
0091:  CALL   004
0092:  MOVWF  23
0093:  BSF    03.5
0094:  CLRF   08
0095:  BCF    03.5
0096:  MOVF   23,W
0097:  MOVWF  08
....................                LEVEL=I; 
0098:  MOVF   20,W
0099:  MOVWF  21
....................                //BREAK; 
....................                WHILE(INPUT(RAND)==0); 
009A:  BSF    03.5
009B:  BSF    06.0
009C:  BCF    03.5
009D:  BTFSS  06.0
009E:  GOTO   09A
....................             } 
....................          } 
009F:  INCF   20,F
00A0:  GOTO   07F
....................       } 
....................       SET_PWM1_DUTY((UNSIGNED INT16)LEVEL*50); 
00A1:  CLRF   24
00A2:  MOVF   21,W
00A3:  MOVWF  23
00A4:  MOVF   24,W
00A5:  MOVWF  26
00A6:  MOVF   23,W
00A7:  MOVWF  25
00A8:  CLRF   28
00A9:  MOVLW  32
00AA:  MOVWF  27
00AB:  GOTO   028
00AC:  MOVF   79,W
00AD:  MOVWF  24
00AE:  MOVF   78,W
00AF:  MOVWF  23
00B0:  RRF    24,F
00B1:  RRF    23,F
00B2:  RRF    24,F
00B3:  RRF    23,F
00B4:  RRF    24,F
00B5:  MOVF   23,W
00B6:  MOVWF  15
00B7:  RRF    24,F
00B8:  RRF    24,W
00B9:  ANDLW  30
00BA:  MOVWF  77
00BB:  MOVF   17,W
00BC:  ANDLW  CF
00BD:  IORWF  77,W
00BE:  MOVWF  17
00BF:  GOTO   07E
....................    } 
.................... } 
....................  
00C0:  SLEEP

Configuration Fuses:
   Word  1: 2FE5   INTRC NOWDT PUT MCLR NOPROTECT NOCPD BROWNOUT IESO FCMEN NOLVP NODEBUG
   Word  2: 3FFF   BORV40 NOWRT
