CCS PCM C Compiler, Version 5.015, 5967               17-Dec-23 17:51

               Filename:   E:\BAI TAP VXL\DETHI-GIAIDETHI\2020-2021\BT3_2020-2021_HK1_VDK2.lst

               ROM used:   122 words (1%)
                           Largest free fragment is 2048
               RAM used:   8 (2%) at main() level
                           8 (2%) worst case
               Stack used: 0 locations
               Stack size: 8

*
0000:  MOVLW  00
0001:  MOVWF  0A
0002:  GOTO   004
0003:  NOP
.................... #INCLUDE<16F887.H> 
.................... //////////// Standard Header file for the PIC16F887 device //////////////// 
.................... /////////////////////////////////////////////////////////////////////////// 
.................... ////        (C) Copyright 1996, 2013 Custom Computer Services          //// 
.................... //// This source code may only be used by licensed users of the CCS C  //// 
.................... //// compiler.  This source code may only be distributed to other      //// 
.................... //// licensed users of the CCS C compiler.  No other use, reproduction //// 
.................... //// or distribution is permitted without written permission.          //// 
.................... //// Derivative programs created using this software in object code    //// 
.................... //// form are not restricted in any way.                               //// 
.................... /////////////////////////////////////////////////////////////////////////// 
.................... #device PIC16F887 
....................  
.................... #list 
....................  
.................... #FUSES INTRC 
.................... #USE DELAY(CLOCK=8M) 
.................... #USE RS232(BAUD=9600,BITS=8,STOP=1,PARITY=N, XMIT=PIN_C6,RCV=PIN_C7) 
....................  
.................... #BIT TMR1IF = 0X0C.0 
....................  
.................... #DEFINE PULSE        PIN_D2 
.................... #DEFINE STATUS       PIN_E0  
....................  
.................... UNSIGNED CHAR DATA=0; 
.................... //VDK2 GUI VDK1 'S' -> SANG 'T' -> TAT 
.................... //VDK1 GUI VDK2 RUN -> 'R' -> PHAT XUNG 4MS DUTY=50%  
....................              //STOP -> 'S' -> TAT XUNG 
....................  
.................... VOID MAIN() 
0004:  MOVF   03,W
0005:  ANDLW  1F
0006:  MOVWF  03
0007:  MOVLW  71
0008:  BSF    03.5
0009:  MOVWF  0F
000A:  MOVF   0F,W
000B:  BSF    03.6
000C:  BCF    07.3
000D:  MOVLW  0C
000E:  BCF    03.6
000F:  MOVWF  19
0010:  MOVLW  A2
0011:  MOVWF  18
0012:  MOVLW  90
0013:  BCF    03.5
0014:  MOVWF  18
0015:  CLRF   20
0016:  MOVLW  FF
0017:  MOVWF  21
0018:  BSF    03.5
0019:  BSF    03.6
001A:  MOVF   09,W
001B:  ANDLW  C0
001C:  MOVWF  09
001D:  BCF    03.6
001E:  BCF    1F.4
001F:  BCF    1F.5
0020:  MOVLW  00
0021:  BSF    03.6
0022:  MOVWF  08
0023:  BCF    03.5
0024:  CLRF   07
0025:  CLRF   08
0026:  CLRF   09
0027:  BCF    03.7
.................... { 
....................    SET_TRIS_D(0X00); 
0028:  MOVLW  00
0029:  BSF    03.5
002A:  BCF    03.6
002B:  MOVWF  08
....................    SET_TRIS_E(0X00); 
002C:  BCF    09.0
002D:  BCF    09.1
002E:  BCF    09.2
002F:  BCF    09.3
....................    SET_TRIS_C(0X80); 
0030:  MOVLW  80
0031:  MOVWF  07
0032:  BCF    03.5
0033:  MOVWF  21
....................    
....................    //SETUP TIMER 
....................    SETUP_TIMER_1(T1_INTERNAL|T1_DIV_BY_8); //NAP:65036  
0034:  MOVLW  35
0035:  MOVWF  10
....................                                            //BC:8 
....................    //TRANG THAI BAN DAU TAT LED 
....................    OUTPUT_LOW(STATUS); 
0036:  BSF    03.5
0037:  BCF    09.0
0038:  BCF    03.5
0039:  BCF    09.0
....................     
....................    WHILE(TRUE) 
....................    { 
....................       //NHAN DU LIEU VDK1 
....................       IF(KBHIT()==1) 
003A:  MOVLW  00
003B:  BTFSC  0C.5
003C:  MOVLW  01
003D:  SUBLW  01
003E:  BTFSS  03.2
003F:  GOTO   044
....................       { 
....................          DATA=GETC(); 
0040:  BTFSS  0C.5
0041:  GOTO   040
0042:  MOVF   1A,W
0043:  MOVWF  20
....................       } 
....................       IF(DATA=='R') 
0044:  MOVF   20,W
0045:  SUBLW  52
0046:  BTFSS  03.2
0047:  GOTO   068
....................       { 
....................          PUTC('S'); 
0048:  MOVLW  53
0049:  BTFSS  0C.4
004A:  GOTO   049
004B:  MOVWF  19
....................          //PHAT XUNG 
....................          OUTPUT_HIGH(PULSE); 
004C:  BSF    03.5
004D:  BCF    08.2
004E:  BCF    03.5
004F:  BSF    08.2
....................          SET_TIMER1(65036); //DINHTHOI2MS 
0050:  CLRF   0E
0051:  MOVLW  FE
0052:  MOVWF  0F
0053:  MOVLW  0C
0054:  MOVWF  0E
....................          WHILE(TMR1IF==0);   //CHO CHO TOI KHI TIMER BI TRAN 
0055:  BTFSS  0C.0
0056:  GOTO   055
....................                             //TIMER BI TRAN (TMR1IF==1)DA DU 2MS 
....................                             //64286 ------------> 65536 -----> DU 2MS 
....................          OUTPUT_LOW(PULSE); 
0057:  BSF    03.5
0058:  BCF    08.2
0059:  BCF    03.5
005A:  BCF    08.2
....................          TMR1IF=0; //XOA CO TRAN VE 0 CHO LAN TRAN TIEP THEO 
005B:  BCF    0C.0
....................          SET_TIMER1(65036); //DINHTHOI2MS 
005C:  CLRF   0E
005D:  MOVLW  FE
005E:  MOVWF  0F
005F:  MOVLW  0C
0060:  MOVWF  0E
....................          WHILE(TMR1IF==0); 
0061:  BTFSS  0C.0
0062:  GOTO   061
....................          OUTPUT_HIGH(STATUS); 
0063:  BSF    03.5
0064:  BCF    09.0
0065:  BCF    03.5
0066:  BSF    09.0
....................       } 
0067:  GOTO   078
....................       ELSE IF(DATA=='S') 
0068:  MOVF   20,W
0069:  SUBLW  53
006A:  BTFSS  03.2
006B:  GOTO   078
....................       { 
....................          OUTPUT_LOW(PULSE); 
006C:  BSF    03.5
006D:  BCF    08.2
006E:  BCF    03.5
006F:  BCF    08.2
....................          OUTPUT_LOW(STATUS); 
0070:  BSF    03.5
0071:  BCF    09.0
0072:  BCF    03.5
0073:  BCF    09.0
....................          PUTC('T'); 
0074:  MOVLW  54
0075:  BTFSS  0C.4
0076:  GOTO   075
0077:  MOVWF  19
....................       } 
0078:  GOTO   03A
....................    } 
.................... } 
0079:  SLEEP

Configuration Fuses:
   Word  1: 2FE5   INTRC NOWDT PUT MCLR NOPROTECT NOCPD BROWNOUT IESO FCMEN NOLVP NODEBUG
   Word  2: 3FFF   BORV40 NOWRT
