CCS PCM C Compiler, Version 5.015, 5967               14-Dec-23 14:13

               Filename:   E:\BAI TAP VXL\DETHI-GIAIDETHI\2017-2018\BT1C_2017-2018_HK1.lst

               ROM used:   119 words (1%)
                           Largest free fragment is 2048
               RAM used:   8 (2%) at main() level
                           8 (2%) worst case
               Stack used: 1 locations
               Stack size: 8

*
0000:  MOVLW  00
0001:  MOVWF  0A
0002:  GOTO   01A
0003:  NOP
.................... #INCLUDE<16F887.H> 
.................... //////////// Standard Header file for the PIC16F887 device //////////////// 
.................... /////////////////////////////////////////////////////////////////////////// 
.................... ////        (C) Copyright 1996, 2013 Custom Computer Services          //// 
.................... //// This source code may only be used by licensed users of the CCS C  //// 
.................... //// compiler.  This source code may only be distributed to other      //// 
.................... //// licensed users of the CCS C compiler.  No other use, reproduction //// 
.................... //// or distribution is permitted without written permission.          //// 
.................... //// Derivative programs created using this software in object code    //// 
.................... //// form are not restricted in any way.                               //// 
.................... /////////////////////////////////////////////////////////////////////////// 
.................... #device PIC16F887 
....................  
.................... #list 
....................  
.................... #FUSES INTRC 
.................... #USE DELAY(CLOCK=8M) 
0004:  MOVLW  22
0005:  MOVWF  04
0006:  BCF    03.7
0007:  MOVF   00,W
0008:  BTFSC  03.2
0009:  GOTO   017
000A:  MOVLW  02
000B:  MOVWF  78
000C:  CLRF   77
000D:  DECFSZ 77,F
000E:  GOTO   00D
000F:  DECFSZ 78,F
0010:  GOTO   00C
0011:  MOVLW  97
0012:  MOVWF  77
0013:  DECFSZ 77,F
0014:  GOTO   013
0015:  DECFSZ 00,F
0016:  GOTO   00A
0017:  BCF    0A.3
0018:  BCF    0A.4
0019:  GOTO   056 (RETURN)
....................  
.................... #DEFINE ON_OFF    PIN_B0 
.................... INT1 STATUS=0;    //O OFF 
....................                   //1 ON 
....................  
.................... VOID MAIN() 
001A:  MOVF   03,W
001B:  ANDLW  1F
001C:  MOVWF  03
001D:  MOVLW  71
001E:  BSF    03.5
001F:  MOVWF  0F
0020:  MOVF   0F,W
0021:  BCF    03.5
0022:  BCF    20.0
0023:  MOVLW  FF
0024:  MOVWF  21
0025:  BSF    03.5
0026:  BSF    03.6
0027:  MOVF   09,W
0028:  ANDLW  C0
0029:  MOVWF  09
002A:  BCF    03.6
002B:  BCF    1F.4
002C:  BCF    1F.5
002D:  MOVLW  00
002E:  BSF    03.6
002F:  MOVWF  08
0030:  BCF    03.5
0031:  CLRF   07
0032:  CLRF   08
0033:  CLRF   09
0034:  BCF    03.7
.................... { 
....................    SET_TRIS_B(0XFF); 
0035:  MOVLW  FF
0036:  BSF    03.5
0037:  BCF    03.6
0038:  MOVWF  06
....................    SET_TRIS_C(0X00); 
0039:  MOVLW  00
003A:  MOVWF  07
003B:  BCF    03.5
003C:  MOVWF  21
....................    //SETUP PWM 
....................    //PR2=124 -> MAXDUTY=500 
....................    SETUP_TIMER_2(T2_DIV_BY_16,124,1); 
003D:  MOVWF  78
003E:  IORLW  06
003F:  MOVWF  12
0040:  MOVLW  7C
0041:  BSF    03.5
0042:  MOVWF  12
....................    SETUP_CCP2(CCP_PWM);//RC1 
0043:  BCF    03.5
0044:  BCF    21.1
0045:  MOVF   21,W
0046:  BSF    03.5
0047:  MOVWF  07
0048:  BCF    03.5
0049:  BCF    07.1
004A:  MOVLW  0C
004B:  MOVWF  1D
....................    SET_TIMER2(0); 
004C:  CLRF   11
....................    SET_PWM2_DUTY(0); //BAN DAU TAT 
004D:  CLRF   1B
....................    WHILE(TRUE) 
....................    { 
....................       IF(INPUT(ON_OFF)==0) 
004E:  BSF    03.5
004F:  BSF    06.0
0050:  BCF    03.5
0051:  BTFSC  06.0
0052:  GOTO   062
....................       { 
....................          DELAY_MS(10); 
0053:  MOVLW  0A
0054:  MOVWF  22
0055:  GOTO   004
....................          IF(INPUT(ON_OFF)==0) 
0056:  BSF    03.5
0057:  BSF    06.0
0058:  BCF    03.5
0059:  BTFSC  06.0
005A:  GOTO   062
....................          { 
....................             STATUS=~STATUS; 
005B:  MOVLW  01
005C:  XORWF  20,F
....................             WHILE(INPUT(ON_OFF)==0); 
005D:  BSF    03.5
005E:  BSF    06.0
005F:  BCF    03.5
0060:  BTFSS  06.0
0061:  GOTO   05D
....................          } 
....................       } 
....................       IF(STATUS==1) 
0062:  BTFSS  20.0
0063:  GOTO   073
....................       { 
....................          //ON 
....................          SETUP_CCP2(CCP_PWM); //SETUP LAI 
0064:  BCF    21.1
0065:  MOVF   21,W
0066:  BSF    03.5
0067:  MOVWF  07
0068:  BCF    03.5
0069:  BCF    07.1
006A:  MOVLW  0C
006B:  MOVWF  1D
....................          SET_PWM2_DUTY(350); 
006C:  MOVLW  57
006D:  MOVWF  1B
006E:  MOVF   1D,W
006F:  ANDLW  CF
0070:  IORLW  20
0071:  MOVWF  1D
....................       } 
0072:  GOTO   075
....................       ELSE 
....................       { 
....................          //OFF 
....................          SETUP_CCP2(CCP_OFF); 
0073:  MOVLW  F0
0074:  ANDWF  1D,F
....................       } 
0075:  GOTO   04E
....................    } 
....................     
.................... } 
....................  
0076:  SLEEP

Configuration Fuses:
   Word  1: 2FE5   INTRC NOWDT PUT MCLR NOPROTECT NOCPD BROWNOUT IESO FCMEN NOLVP NODEBUG
   Word  2: 3FFF   BORV40 NOWRT
