CCS PCM C Compiler, Version 5.015, 5967               16-Dec-23 17:43

               Filename:   E:\BAI TAP VXL\DETHI-GIAIDETHI\2017-2018\BT3_2017-2018_HK2_CLC.lst

               ROM used:   243 words (3%)
                           Largest free fragment is 2048
               RAM used:   12 (3%) at main() level
                           12 (3%) worst case
               Stack used: 1 locations
               Stack size: 8

*
0000:  MOVLW  00
0001:  MOVWF  0A
0002:  GOTO   018
0003:  NOP
.................... #INCLUDE<16F887.H> 
.................... //////////// Standard Header file for the PIC16F887 device //////////////// 
.................... /////////////////////////////////////////////////////////////////////////// 
.................... ////        (C) Copyright 1996, 2013 Custom Computer Services          //// 
.................... //// This source code may only be used by licensed users of the CCS C  //// 
.................... //// compiler.  This source code may only be distributed to other      //// 
.................... //// licensed users of the CCS C compiler.  No other use, reproduction //// 
.................... //// or distribution is permitted without written permission.          //// 
.................... //// Derivative programs created using this software in object code    //// 
.................... //// form are not restricted in any way.                               //// 
.................... /////////////////////////////////////////////////////////////////////////// 
.................... #device PIC16F887 
....................  
.................... #list 
....................  
.................... #FUSES HS 
.................... #USE DELAY(CLOCK=20M) 
0004:  MOVLW  26
0005:  MOVWF  04
0006:  BCF    03.7
0007:  MOVF   00,W
0008:  BTFSC  03.2
0009:  GOTO   017
000A:  MOVLW  06
000B:  MOVWF  78
000C:  CLRF   77
000D:  DECFSZ 77,F
000E:  GOTO   00D
000F:  DECFSZ 78,F
0010:  GOTO   00C
0011:  MOVLW  7B
0012:  MOVWF  77
0013:  DECFSZ 77,F
0014:  GOTO   013
0015:  DECFSZ 00,F
0016:  GOTO   00A
0017:  RETURN
.................... #USE RS232(BAUD=2400,XMIT=PIN_C6,RCV=PIN_C7) 
.................... #DEFINE PQC_1           PIN_C0 
.................... #DEFINE PQC_2           PIN_C1 
.................... #DEFINE LINE_LEADER_1   PIN_C2 
.................... #DEFINE LINE_LEADER_2   PIN_C3 
....................  
.................... UNSIGNED CHAR DATA=0; 
.................... UNSIGNED INT8 DEM1=11,DEM2=12,DEM3=21,DEM4=22; 
....................  
.................... VOID MAIN() 
0018:  MOVF   03,W
0019:  ANDLW  1F
001A:  MOVWF  03
001B:  BSF    03.5
001C:  BSF    03.6
001D:  BSF    07.3
001E:  MOVLW  22
001F:  BCF    03.6
0020:  MOVWF  19
0021:  MOVLW  08
0022:  MOVWF  1A
0023:  MOVLW  A6
0024:  MOVWF  18
0025:  MOVLW  90
0026:  BCF    03.5
0027:  MOVWF  18
0028:  CLRF   20
0029:  MOVLW  0B
002A:  MOVWF  21
002B:  MOVLW  0C
002C:  MOVWF  22
002D:  MOVLW  15
002E:  MOVWF  23
002F:  MOVLW  16
0030:  MOVWF  24
0031:  MOVLW  FF
0032:  MOVWF  25
0033:  BSF    03.5
0034:  BSF    03.6
0035:  MOVF   09,W
0036:  ANDLW  C0
0037:  MOVWF  09
0038:  BCF    03.6
0039:  BCF    1F.4
003A:  BCF    1F.5
003B:  MOVLW  00
003C:  BSF    03.6
003D:  MOVWF  08
003E:  BCF    03.5
003F:  CLRF   07
0040:  CLRF   08
0041:  CLRF   09
0042:  BCF    03.7
.................... { 
....................    SET_TRIS_B(0); 
0043:  MOVLW  00
0044:  BSF    03.5
0045:  BCF    03.6
0046:  MOVWF  06
....................    SET_TRIS_C(0B10001111); 
0047:  MOVLW  8F
0048:  MOVWF  07
0049:  BCF    03.5
004A:  MOVWF  25
....................    SET_TRIS_D(0); 
004B:  MOVLW  00
004C:  BSF    03.5
004D:  MOVWF  08
....................    OUTPUT_B(0XBF); 
004E:  CLRF   06
004F:  MOVLW  BF
0050:  BCF    03.5
0051:  MOVWF  06
....................    OUTPUT_D(0XBF);    
0052:  BSF    03.5
0053:  CLRF   08
0054:  BCF    03.5
0055:  MOVWF  08
....................    WHILE (TRUE) 
....................    { 
....................       IF(INPUT(PIN_C0)==0) 
0056:  BSF    25.0
0057:  MOVF   25,W
0058:  BSF    03.5
0059:  MOVWF  07
005A:  BCF    03.5
005B:  BTFSC  07.0
005C:  GOTO   077
....................       { 
....................          DELAY_MS(20); 
005D:  MOVLW  14
005E:  MOVWF  26
005F:  CALL   004
....................          IF(INPUT(PIN_C0)==0) 
0060:  BSF    25.0
0061:  MOVF   25,W
0062:  BSF    03.5
0063:  MOVWF  07
0064:  BCF    03.5
0065:  BTFSC  07.0
0066:  GOTO   077
....................          { 
....................             WHILE (INPUT(PIN_C0)==0); 
0067:  BSF    25.0
0068:  MOVF   25,W
0069:  BSF    03.5
006A:  MOVWF  07
006B:  BCF    03.5
006C:  BTFSS  07.0
006D:  GOTO   067
....................             OUTPUT_B(0XF9); 
006E:  BSF    03.5
006F:  CLRF   06
0070:  MOVLW  F9
0071:  BCF    03.5
0072:  MOVWF  06
....................             PUTC(DEM1); 
0073:  MOVF   21,W
0074:  BTFSS  0C.4
0075:  GOTO   074
0076:  MOVWF  19
....................          } 
....................       } 
....................       IF(INPUT(PIN_C1)==0) 
0077:  BSF    25.1
0078:  MOVF   25,W
0079:  BSF    03.5
007A:  MOVWF  07
007B:  BCF    03.5
007C:  BTFSC  07.1
007D:  GOTO   098
....................       { 
....................          DELAY_MS(20); 
007E:  MOVLW  14
007F:  MOVWF  26
0080:  CALL   004
....................          IF(INPUT(PIN_C1)==0) 
0081:  BSF    25.1
0082:  MOVF   25,W
0083:  BSF    03.5
0084:  MOVWF  07
0085:  BCF    03.5
0086:  BTFSC  07.1
0087:  GOTO   098
....................          { 
....................             WHILE (INPUT(PIN_C1)==0); 
0088:  BSF    25.1
0089:  MOVF   25,W
008A:  BSF    03.5
008B:  MOVWF  07
008C:  BCF    03.5
008D:  BTFSS  07.1
008E:  GOTO   088
....................             OUTPUT_B(0XA4); 
008F:  BSF    03.5
0090:  CLRF   06
0091:  MOVLW  A4
0092:  BCF    03.5
0093:  MOVWF  06
....................             PUTC(DEM2); 
0094:  MOVF   22,W
0095:  BTFSS  0C.4
0096:  GOTO   095
0097:  MOVWF  19
....................          } 
....................       }  
....................       IF(INPUT(PIN_C2)==0) 
0098:  BSF    25.2
0099:  MOVF   25,W
009A:  BSF    03.5
009B:  MOVWF  07
009C:  BCF    03.5
009D:  BTFSC  07.2
009E:  GOTO   0B9
....................       { 
....................          DELAY_MS(20); 
009F:  MOVLW  14
00A0:  MOVWF  26
00A1:  CALL   004
....................          IF(INPUT(PIN_C2)==0) 
00A2:  BSF    25.2
00A3:  MOVF   25,W
00A4:  BSF    03.5
00A5:  MOVWF  07
00A6:  BCF    03.5
00A7:  BTFSC  07.2
00A8:  GOTO   0B9
....................          { 
....................             WHILE (INPUT(PIN_C2)==0); 
00A9:  BSF    25.2
00AA:  MOVF   25,W
00AB:  BSF    03.5
00AC:  MOVWF  07
00AD:  BCF    03.5
00AE:  BTFSS  07.2
00AF:  GOTO   0A9
....................             OUTPUT_D(0XF9); 
00B0:  BSF    03.5
00B1:  CLRF   08
00B2:  MOVLW  F9
00B3:  BCF    03.5
00B4:  MOVWF  08
....................             PUTC(DEM3); 
00B5:  MOVF   23,W
00B6:  BTFSS  0C.4
00B7:  GOTO   0B6
00B8:  MOVWF  19
....................          } 
....................       } 
....................       IF(INPUT(PIN_C3)==0) 
00B9:  BSF    25.3
00BA:  MOVF   25,W
00BB:  BSF    03.5
00BC:  MOVWF  07
00BD:  BCF    03.5
00BE:  BTFSC  07.3
00BF:  GOTO   0DA
....................       { 
....................          DELAY_MS(20); 
00C0:  MOVLW  14
00C1:  MOVWF  26
00C2:  CALL   004
....................          IF(INPUT(PIN_C3)==0) 
00C3:  BSF    25.3
00C4:  MOVF   25,W
00C5:  BSF    03.5
00C6:  MOVWF  07
00C7:  BCF    03.5
00C8:  BTFSC  07.3
00C9:  GOTO   0DA
....................          { 
....................             WHILE (INPUT(PIN_C3)==0); 
00CA:  BSF    25.3
00CB:  MOVF   25,W
00CC:  BSF    03.5
00CD:  MOVWF  07
00CE:  BCF    03.5
00CF:  BTFSS  07.3
00D0:  GOTO   0CA
....................             OUTPUT_D(0XA4); 
00D1:  BSF    03.5
00D2:  CLRF   08
00D3:  MOVLW  A4
00D4:  BCF    03.5
00D5:  MOVWF  08
....................             PUTC(DEM4); 
00D6:  MOVF   24,W
00D7:  BTFSS  0C.4
00D8:  GOTO   0D7
00D9:  MOVWF  19
....................          } 
....................       } 
....................       IF (KBHIT()==1) 
00DA:  MOVLW  00
00DB:  BTFSC  0C.5
00DC:  MOVLW  01
00DD:  SUBLW  01
00DE:  BTFSS  03.2
00DF:  GOTO   0E4
....................       { 
....................          DATA=GETC(); 
00E0:  BTFSS  0C.5
00E1:  GOTO   0E0
00E2:  MOVF   1A,W
00E3:  MOVWF  20
....................       } 
....................       IF(DATA=='R') 
00E4:  MOVF   20,W
00E5:  SUBLW  52
00E6:  BTFSS  03.2
00E7:  GOTO   0F1
....................       { 
....................          OUTPUT_B(0XBF); 
00E8:  BSF    03.5
00E9:  CLRF   06
00EA:  MOVLW  BF
00EB:  BCF    03.5
00EC:  MOVWF  06
....................          OUTPUT_D(0XBF); 
00ED:  BSF    03.5
00EE:  CLRF   08
00EF:  BCF    03.5
00F0:  MOVWF  08
....................       } 
00F1:  GOTO   056
....................    }    
.................... } 
00F2:  SLEEP

Configuration Fuses:
   Word  1: 2FE2   HS NOWDT PUT MCLR NOPROTECT NOCPD BROWNOUT IESO FCMEN NOLVP NODEBUG
   Word  2: 3FFF   BORV40 NOWRT
